; Function Attrs: mustprogress uwtable
define noundef nonnull align 8 dereferenceable(104) ptr @_ZNK2cv5aruco5Board13getDictionaryEv(ptr noundef nonnull readonly align 8 captures(none) dereferenceable(16) %0) local_unnamed_addr #3 align 2 personality ptr @__gxx_personality_v0 {
  %2 = alloca %"class.std::__cxx11::basic_string", align 8
  %3 = alloca %"class.std::allocator", align 1
  %4 = load ptr, ptr %0, align 8, !tbaa !100
  %.not = icmp eq ptr %4, null
  br i1 %.not, label %5, label %15

5:                                                ; preds = %1
  call void @llvm.lifetime.start.p0(i64 32, ptr nonnull %2) #26
  call void @llvm.lifetime.start.p0(i64 1, ptr nonnull %3) #26
  call void @_ZNSt7__cxx1112basic_stringIcSt11char_traitsIcESaIcEEC2EPKcRKS3_(ptr noundef nonnull align 8 dereferenceable(32) %2, ptr noundef nonnull @.str.12, ptr noundef nonnull align 1 dereferenceable(1) %3)
  invoke void @_ZN2cv5errorEiRKNSt7__cxx1112basic_stringIcSt11char_traitsIcESaIcEEEPKcS9_i(i32 noundef -215, ptr noundef nonnull align 8 dereferenceable(32) %2, ptr noundef nonnull @__func__._ZNK2cv5aruco5Board13getDictionaryEv, ptr noundef nonnull @.str.1, i32 noundef 187) #27
          to label %6 unwind label %7

6:                                                ; preds = %5
  unreachable

7:                                                ; preds = %5
  %8 = landingpad { ptr, i32 }
          cleanup
  %9 = load ptr, ptr %2, align 8, !tbaa !3
  %10 = getelementptr inbounds nuw i8, ptr %2, i64 16
  %11 = icmp eq ptr %9, %10
  br i1 %11, label %_ZNKSt7__cxx1112basic_stringIcSt11char_traitsIcESaIcEE11_M_is_localEv.exit.thread.i.i, label %_ZNKSt7__cxx1112basic_stringIcSt11char_traitsIcESaIcEE11_M_is_localEv.exit.i.i

_ZNKSt7__cxx1112basic_stringIcSt11char_traitsIcESaIcEE11_M_is_localEv.exit.thread.i.i: ; preds = %7
  %12 = getelementptr inbounds nuw i8, ptr %2, i64 8
  %13 = load i64, ptr %12, align 8, !tbaa !11
  %14 = icmp ult i64 %13, 16
  call void @llvm.assume(i1 %14)
  br label %_ZNSt7__cxx1112basic_stringIcSt11char_traitsIcESaIcEED2Ev.exit

_ZNKSt7__cxx1112basic_stringIcSt11char_traitsIcESaIcEE11_M_is_localEv.exit.i.i: ; preds = %7
  call void @_ZdlPv(ptr noundef %9) #28
  br label %_ZNSt7__cxx1112basic_stringIcSt11char_traitsIcESaIcEED2Ev.exit

_ZNSt7__cxx1112basic_stringIcSt11char_traitsIcESaIcEED2Ev.exit: ; preds = %_ZNKSt7__cxx1112basic_stringIcSt11char_traitsIcESaIcEE11_M_is_localEv.exit.i.i, %_ZNKSt7__cxx1112basic_stringIcSt11char_traitsIcESaIcEE11_M_is_localEv.exit.thread.i.i
  call void @llvm.lifetime.end.p0(i64 1, ptr nonnull %3) #26
  call void @llvm.lifetime.end.p0(i64 32, ptr nonnull %2) #26
  resume { ptr, i32 } %8

15:                                               ; preds = %1
  %16 = getelementptr inbounds nuw i8, ptr %4, i64 8
  ret ptr %16
}